; Function Attrs: nounwind uwtable
define internal i32 @CVSpgmrSetup(ptr noundef %0, i32 noundef %1, ptr noundef %2, ptr noundef %3, ptr noundef initializes((0, 4)) %4, ptr noundef %5, ptr noundef %6, ptr noundef %7) #0 {
  %9 = getelementptr inbounds nuw i8, ptr %0, i64 1696
  %10 = load ptr, ptr %9, align 8, !tbaa !42
  %11 = getelementptr inbounds nuw i8, ptr %0, i64 1272
  %12 = load double, ptr %11, align 8, !tbaa !47
  %13 = getelementptr inbounds nuw i8, ptr %0, i64 1280
  %14 = load double, ptr %13, align 8, !tbaa !48
  %15 = fdiv double %12, %14
  %16 = fadd double %15, -1.000000e+00
  %17 = tail call double @SUNRabs(double noundef %16) #7
  %18 = getelementptr inbounds nuw i8, ptr %0, i64 1432
  %19 = load i64, ptr %18, align 8, !tbaa !49
  %20 = icmp eq i64 %19, 0
  br i1 %20, label %30, label %21

21:                                               ; preds = %8
  %22 = getelementptr inbounds nuw i8, ptr %10, i64 56
  %23 = load i64, ptr %22, align 8, !tbaa !50
  %24 = add nsw i64 %23, 50
  %25 = icmp sgt i64 %19, %24
  br i1 %25, label %30, label %26

26:                                               ; preds = %21
  %27 = icmp eq i32 %1, 1
  %28 = fcmp olt double %17, 2.000000e-01
  %or.cond = select i1 %27, i1 %28, i1 false
  %29 = icmp eq i32 %1, 2
  %spec.select = or i1 %29, %or.cond
  br label %30

30:                                               ; preds = %26, %21, %8
  %31 = phi i1 [ true, %21 ], [ true, %8 ], [ %spec.select, %26 ]
  %32 = zext i1 %31 to i32
  store i32 %32, ptr %4, align 4, !tbaa !51
  %33 = xor i1 %31, true
  %34 = zext i1 %33 to i32
  %35 = getelementptr inbounds nuw i8, ptr %10, i64 152
  %36 = load ptr, ptr %35, align 8, !tbaa !44
  %37 = getelementptr inbounds nuw i8, ptr %0, i64 984
  %38 = load double, ptr %37, align 8, !tbaa !52
  %39 = load double, ptr %11, align 8, !tbaa !47
  %40 = getelementptr inbounds nuw i8, ptr %10, i64 176
  %41 = load ptr, ptr %40, align 8, !tbaa !33
  %42 = tail call i32 %36(double noundef %38, ptr noundef %2, ptr noundef %3, i32 noundef %34, ptr noundef nonnull %4, double noundef %39, ptr noundef %41, ptr noundef %5, ptr noundef %6, ptr noundef %7) #7
  %43 = icmp slt i32 %42, 0
  br i1 %43, label %.thread, label %44

.thread:                                          ; preds = %30
  tail call void (ptr, i32, ptr, ptr, ptr, ...) @cvProcessError(ptr noundef nonnull %0, i32 noundef -6, ptr noundef nonnull @.str, ptr noundef nonnull @.str.11, ptr noundef nonnull @.str.12) #7
  br label %44

44:                                               ; preds = %30, %.thread
  br i1 %31, label %.thread36, label %45

.thread36:                                        ; preds = %44
  store i32 1, ptr %4, align 4, !tbaa !51
  br label %46

45:                                               ; preds = %44
  %.pr = load i32, ptr %4, align 4, !tbaa !51
  %.not = icmp eq i32 %.pr, 0
  br i1 %.not, label %52, label %46

46:                                               ; preds = %.thread36, %45
  %47 = getelementptr inbounds nuw i8, ptr %10, i64 64
  %48 = load i64, ptr %47, align 8, !tbaa !53
  %49 = add nsw i64 %48, 1
  store i64 %49, ptr %47, align 8, !tbaa !53
  %50 = load i64, ptr %18, align 8, !tbaa !49
  %51 = getelementptr inbounds nuw i8, ptr %10, i64 56
  store i64 %50, ptr %51, align 8, !tbaa !50
  br label %52

52:                                               ; preds = %46, %45
  %53 = getelementptr inbounds nuw i8, ptr %10, i64 208
  store i64 0, ptr %53, align 8, !tbaa !36
  ret i32 %42
}